; Function Attrs: nounwind uwtable
define void @Gia_Iso4TestTwo(ptr noundef %0, ptr noundef %1) local_unnamed_addr #2 {
  %3 = tail call ptr @Gia_Iso4Gia(ptr noundef %0)
  %4 = tail call ptr @Gia_Iso4Gia(ptr noundef %1)
  tail call void @Gia_IsoCompareVecs(ptr noundef %0, ptr noundef %3, ptr noundef %1, ptr noundef %4)
  %5 = load i32, ptr %3, align 8, !tbaa !56
  %6 = icmp sgt i32 %5, 0
  %7 = getelementptr inbounds nuw i8, ptr %3, i64 8
  %.pre.i.i = load ptr, ptr %7, align 8, !tbaa !50
  br i1 %6, label %.lr.ph.i.i, label %._crit_edge.i.i

.lr.ph.i.i:                                       ; preds = %2, %15
  %8 = phi i32 [ %16, %15 ], [ %5, %2 ]
  %9 = phi ptr [ %17, %15 ], [ %.pre.i.i, %2 ]
  %indvars.iv.i.i = phi i64 [ %indvars.iv.next.i.i, %15 ], [ 0, %2 ]
  %10 = getelementptr inbounds nuw %struct.Vec_Int_t_, ptr %9, i64 %indvars.iv.i.i, i32 2
  %11 = load ptr, ptr %10, align 8, !tbaa !34
  %.not15.i.i = icmp eq ptr %11, null
  br i1 %.not15.i.i, label %15, label %12

12:                                               ; preds = %.lr.ph.i.i
  tail call void @free(ptr noundef nonnull %11) #19
  %13 = load ptr, ptr %7, align 8, !tbaa !50
  %14 = getelementptr inbounds nuw %struct.Vec_Int_t_, ptr %13, i64 %indvars.iv.i.i, i32 2
  store ptr null, ptr %14, align 8, !tbaa !34
  %.pre18.i.i = load i32, ptr %3, align 8, !tbaa !56
  br label %15

15:                                               ; preds = %12, %.lr.ph.i.i
  %16 = phi i32 [ %.pre18.i.i, %12 ], [ %8, %.lr.ph.i.i ]
  %17 = phi ptr [ %13, %12 ], [ %9, %.lr.ph.i.i ]
  %indvars.iv.next.i.i = add nuw nsw i64 %indvars.iv.i.i, 1
  %18 = sext i32 %16 to i64
  %19 = icmp slt i64 %indvars.iv.next.i.i, %18
  br i1 %19, label %.lr.ph.i.i, label %._crit_edge.thread.i.i, !llvm.loop !57

._crit_edge.i.i:                                  ; preds = %2
  %.not.i.i = icmp eq ptr %.pre.i.i, null
  br i1 %.not.i.i, label %Vec_WecFree.exit, label %._crit_edge.thread.i.i

._crit_edge.thread.i.i:                           ; preds = %15, %._crit_edge.i.i
  %20 = phi ptr [ %.pre.i.i, %._crit_edge.i.i ], [ %17, %15 ]
  tail call void @free(ptr noundef nonnull %20) #19
  br label %Vec_WecFree.exit

Vec_WecFree.exit:                                 ; preds = %._crit_edge.i.i, %._crit_edge.thread.i.i
  tail call void @free(ptr noundef nonnull %3) #19
  %21 = load i32, ptr %4, align 8, !tbaa !56
  %22 = icmp sgt i32 %21, 0
  %23 = getelementptr inbounds nuw i8, ptr %4, i64 8
  %.pre.i.i8 = load ptr, ptr %23, align 8, !tbaa !50
  br i1 %22, label %.lr.ph.i.i12, label %._crit_edge.i.i9

.lr.ph.i.i12:                                     ; preds = %Vec_WecFree.exit, %31
  %24 = phi i32 [ %32, %31 ], [ %21, %Vec_WecFree.exit ]
  %25 = phi ptr [ %33, %31 ], [ %.pre.i.i8, %Vec_WecFree.exit ]
  %indvars.iv.i.i13 = phi i64 [ %indvars.iv.next.i.i16, %31 ], [ 0, %Vec_WecFree.exit ]
  %26 = getelementptr inbounds nuw %struct.Vec_Int_t_, ptr %25, i64 %indvars.iv.i.i13, i32 2
  %27 = load ptr, ptr %26, align 8, !tbaa !34
  %.not15.i.i14 = icmp eq ptr %27, null
  br i1 %.not15.i.i14, label %31, label %28

28:                                               ; preds = %.lr.ph.i.i12
  tail call void @free(ptr noundef nonnull %27) #19
  %29 = load ptr, ptr %23, align 8, !tbaa !50
  %30 = getelementptr inbounds nuw %struct.Vec_Int_t_, ptr %29, i64 %indvars.iv.i.i13, i32 2
  store ptr null, ptr %30, align 8, !tbaa !34
  %.pre18.i.i15 = load i32, ptr %4, align 8, !tbaa !56
  br label %31

31:                                               ; preds = %28, %.lr.ph.i.i12
  %32 = phi i32 [ %.pre18.i.i15, %28 ], [ %24, %.lr.ph.i.i12 ]
  %33 = phi ptr [ %29, %28 ], [ %25, %.lr.ph.i.i12 ]
  %indvars.iv.next.i.i16 = add nuw nsw i64 %indvars.iv.i.i13, 1
  %34 = sext i32 %32 to i64
  %35 = icmp slt i64 %indvars.iv.next.i.i16, %34
  br i1 %35, label %.lr.ph.i.i12, label %._crit_edge.thread.i.i11, !llvm.loop !57

._crit_edge.i.i9:                                 ; preds = %Vec_WecFree.exit
  %.not.i.i10 = icmp eq ptr %.pre.i.i8, null
  br i1 %.not.i.i10, label %Vec_WecFree.exit17, label %._crit_edge.thread.i.i11

._crit_edge.thread.i.i11:                         ; preds = %31, %._crit_edge.i.i9
  %36 = phi ptr [ %.pre.i.i8, %._crit_edge.i.i9 ], [ %33, %31 ]
  tail call void @free(ptr noundef nonnull %36) #19
  br label %Vec_WecFree.exit17

Vec_WecFree.exit17:                               ; preds = %._crit_edge.i.i9, %._crit_edge.thread.i.i11
  tail call void @free(ptr noundef nonnull %4) #19
  ret void
}